target datalayout = "e-m:e-p270:32:32-p271:32:32-p272:64:64-i64:64-i128:128-f80:128-n8:16:32:64-S128"
target triple = "x86_64-pc-linux-gnu"

%struct.pmix_object_t = type { %union.pthread_mutex_t, ptr, i32, %struct.pmix_tma }
%union.pthread_mutex_t = type { %struct.__pthread_mutex_s }
%struct.__pthread_mutex_s = type { i32, i32, i32, i32, i32, i16, i16, %struct.__pthread_internal_list }
%struct.__pthread_internal_list = type { ptr, ptr }
%struct.pmix_tma = type { ptr, ptr, ptr, ptr, ptr, ptr, ptr, ptr }
%struct.pmix_psquash_base_module_t = type { ptr, i8, ptr, ptr, ptr, ptr, ptr }
%struct.pmix_mca_base_framework_t = type { ptr, ptr, ptr, ptr, ptr, ptr, i32, i32, ptr, ptr, i32, i32, %struct.pmix_list_t, %struct.pmix_list_t }
%struct.pmix_list_t = type { %struct.pmix_object_t, %struct.pmix_list_item_t, i64 }
%struct.pmix_list_item_t = type { %struct.pmix_object_t, ptr, ptr, i32 }
%struct.pmix_output_desc_t = type { i8, i8, i32, i8, i32, ptr, ptr, i32, ptr, i32, i8, i8, i8, i8, ptr, i32, i32 }
%struct.pmix_buffer_t = type { %struct.pmix_object_t, i8, ptr, ptr, ptr, i64, i64 }

@pmix_psquash = external global %struct.pmix_psquash_base_module_t, align 8
@.str.71 = private unnamed_addr constant [37 x i8] c"PMIX ERROR: %s in file %s at line %d\00", align 1
@.str.72 = private unnamed_addr constant [15 x i8] c"bfrop_pmix51.c\00", align 1
@pmix_bfrops_base_framework = external global %struct.pmix_mca_base_framework_t, align 8
@pmix_output_info = external global [0 x %struct.pmix_output_desc_t], align 8
@.str.73 = private unnamed_addr constant [36 x i8] c"pmix_bfrops_base_pack_integer * %d\0A\00", align 1

; Function Attrs: nounwind uwtable
define internal i32 @pmix51_bfrops_base_pack_general_int(ptr noundef %0, ptr noundef %1, ptr noundef %2, i32 noundef %3, i16 noundef zeroext %4) #0 {
  %6 = alloca i32, align 4
  %7 = alloca ptr, align 8
  %8 = alloca ptr, align 8
  %9 = alloca ptr, align 8
  %10 = alloca i32, align 4
  %11 = alloca i16, align 2
  %12 = alloca i32, align 4
  %13 = alloca i32, align 4
  %14 = alloca ptr, align 8
  %15 = alloca i64, align 8
  %16 = alloca i64, align 8
  %17 = alloca i64, align 8
  %18 = alloca i32, align 4
  store ptr %0, ptr %7, align 8, !tbaa !53
  store ptr %1, ptr %8, align 8, !tbaa !3
  store ptr %2, ptr %9, align 8, !tbaa !3
  store i32 %3, ptr %10, align 4, !tbaa !20
  store i16 %4, ptr %11, align 2, !tbaa !31
  call void @llvm.lifetime.start.p0(i64 4, ptr %12) #12
  call void @llvm.lifetime.start.p0(i64 4, ptr %13) #12
  call void @llvm.lifetime.start.p0(i64 8, ptr %14) #12
  call void @llvm.lifetime.start.p0(i64 8, ptr %15) #12
  call void @llvm.lifetime.start.p0(i64 8, ptr %16) #12
  call void @llvm.lifetime.start.p0(i64 8, ptr %17) #12
  %19 = load i32, ptr getelementptr inbounds nuw (%struct.pmix_mca_base_framework_t, ptr @pmix_bfrops_base_framework, i32 0, i32 11), align 4, !tbaa !81
  %20 = icmp sge i32 %19, 0
  br i1 %20, label %21, label %34

21:                                               ; preds = %5
  %22 = load i32, ptr getelementptr inbounds nuw (%struct.pmix_mca_base_framework_t, ptr @pmix_bfrops_base_framework, i32 0, i32 11), align 4, !tbaa !81
  %23 = icmp slt i32 %22, 64
  br i1 %23, label %24, label %34

24:                                               ; preds = %21
  %25 = load i32, ptr getelementptr inbounds nuw (%struct.pmix_mca_base_framework_t, ptr @pmix_bfrops_base_framework, i32 0, i32 11), align 4, !tbaa !81
  %26 = sext i32 %25 to i64
  %27 = getelementptr inbounds [0 x %struct.pmix_output_desc_t], ptr @pmix_output_info, i64 0, i64 %26
  %28 = getelementptr inbounds nuw %struct.pmix_output_desc_t, ptr %27, i32 0, i32 2
  %29 = load i32, ptr %28, align 4, !tbaa !87
  %30 = icmp sge i32 %29, 20
  br i1 %30, label %31, label %34

31:                                               ; preds = %24
  %32 = load i32, ptr getelementptr inbounds nuw (%struct.pmix_mca_base_framework_t, ptr @pmix_bfrops_base_framework, i32 0, i32 11), align 4, !tbaa !81
  %33 = load i32, ptr %10, align 4, !tbaa !20
  call void (i32, ptr, ...) @pmix_output(i32 noundef %32, ptr noundef @.str.73, i32 noundef %33)
  br label %34

34:                                               ; preds = %31, %24, %21, %5
  br label %35

35:                                               ; preds = %34
  store i32 0, ptr %12, align 4, !tbaa !20
  %36 = load i16, ptr %11, align 2, !tbaa !31
  %37 = zext i16 %36 to i32
  switch i32 %37, label %42 [
    i32 8, label %38
    i32 13, label %38
    i32 6, label %39
    i32 9, label %39
    i32 11, label %39
    i32 14, label %39
    i32 10, label %40
    i32 15, label %40
    i32 4, label %41
  ]

38:                                               ; preds = %35, %35
  store i64 2, ptr %15, align 8, !tbaa !61
  br label %43

39:                                               ; preds = %35, %35, %35, %35
  store i64 4, ptr %15, align 8, !tbaa !61
  br label %43

40:                                               ; preds = %35, %35
  store i64 8, ptr %15, align 8, !tbaa !61
  br label %43

41:                                               ; preds = %35
  store i64 8, ptr %15, align 8, !tbaa !61
  br label %43

42:                                               ; preds = %35
  store i32 -27, ptr %12, align 4, !tbaa !20
  br label %43

43:                                               ; preds = %42, %41, %40, %39, %38
  br label %44

44:                                               ; preds = %43
  br label %45

45:                                               ; preds = %44
  %46 = load i32, ptr %12, align 4, !tbaa !20
  %47 = icmp ne i32 0, %46
  br i1 %47, label %48, label %59

48:                                               ; preds = %45
  br label %49

49:                                               ; preds = %48
  %50 = load i32, ptr %12, align 4, !tbaa !20
  %51 = icmp ne i32 -2, %50
  br i1 %51, label %52, label %55

52:                                               ; preds = %49
  %53 = load i32, ptr %12, align 4, !tbaa !20
  %54 = call ptr @PMIx_Error_string(i32 noundef %53)
  call void (i32, ptr, ...) @pmix_output(i32 noundef 0, ptr noundef @.str.71, ptr noundef %54, ptr noundef @.str.72, i32 noundef 438)
  br label %55

55:                                               ; preds = %52, %49
  br label %56

56:                                               ; preds = %55
  br label %57

57:                                               ; preds = %56
  %58 = load i32, ptr %12, align 4, !tbaa !20
  store i32 %58, ptr %6, align 4
  store i32 1, ptr %18, align 4
  br label %142

59:                                               ; preds = %45
  %60 = load ptr, ptr getelementptr inbounds nuw (%struct.pmix_psquash_base_module_t, ptr @pmix_psquash, i32 0, i32 4), align 8, !tbaa !89
  %61 = load i16, ptr %11, align 2, !tbaa !31
  %62 = call i32 %60(i16 noundef zeroext %61, ptr noundef %16)
  store i32 %62, ptr %12, align 4, !tbaa !20
  %63 = load i32, ptr %12, align 4, !tbaa !20
  %64 = icmp ne i32 0, %63
  br i1 %64, label %65, label %76

65:                                               ; preds = %59
  br label %66

66:                                               ; preds = %65
  %67 = load i32, ptr %12, align 4, !tbaa !20
  %68 = icmp ne i32 -2, %67
  br i1 %68, label %69, label %72

69:                                               ; preds = %66
  %70 = load i32, ptr %12, align 4, !tbaa !20
  %71 = call ptr @PMIx_Error_string(i32 noundef %70)
  call void (i32, ptr, ...) @pmix_output(i32 noundef 0, ptr noundef @.str.71, ptr noundef %71, ptr noundef @.str.72, i32 noundef 444)
  br label %72

72:                                               ; preds = %69, %66
  br label %73

73:                                               ; preds = %72
  br label %74

74:                                               ; preds = %73
  %75 = load i32, ptr %12, align 4, !tbaa !20
  store i32 %75, ptr %6, align 4
  store i32 1, ptr %18, align 4
  br label %142

76:                                               ; preds = %59
  %77 = load ptr, ptr %8, align 8, !tbaa !3
  %78 = load i32, ptr %10, align 4, !tbaa !20
  %79 = sext i32 %78 to i64
  %80 = load i64, ptr %16, align 8, !tbaa !61
  %81 = mul i64 %79, %80
  %82 = call ptr @pmix_bfrop_buffer_extend(ptr noundef %77, i64 noundef %81)
  store ptr %82, ptr %14, align 8, !tbaa !36
  %83 = icmp eq ptr null, %82
  br i1 %83, label %84, label %95

84:                                               ; preds = %76
  store i32 -29, ptr %12, align 4, !tbaa !20
  br label %85

85:                                               ; preds = %84
  %86 = load i32, ptr %12, align 4, !tbaa !20
  %87 = icmp ne i32 -2, %86
  br i1 %87, label %88, label %91

88:                                               ; preds = %85
  %89 = load i32, ptr %12, align 4, !tbaa !20
  %90 = call ptr @PMIx_Error_string(i32 noundef %89)
  call void (i32, ptr, ...) @pmix_output(i32 noundef 0, ptr noundef @.str.71, ptr noundef %90, ptr noundef @.str.72, i32 noundef 451)
  br label %91

91:                                               ; preds = %88, %85
  br label %92

92:                                               ; preds = %91
  br label %93

93:                                               ; preds = %92
  %94 = load i32, ptr %12, align 4, !tbaa !20
  store i32 %94, ptr %6, align 4
  store i32 1, ptr %18, align 4
  br label %142

95:                                               ; preds = %76
  store i32 0, ptr %13, align 4, !tbaa !20
  br label %96

96:                                               ; preds = %138, %95
  %97 = load i32, ptr %13, align 4, !tbaa !20
  %98 = load i32, ptr %10, align 4, !tbaa !20
  %99 = icmp slt i32 %97, %98
  br i1 %99, label %100, label %141

100:                                              ; preds = %96
  %101 = load ptr, ptr getelementptr inbounds nuw (%struct.pmix_psquash_base_module_t, ptr @pmix_psquash, i32 0, i32 5), align 8, !tbaa !90
  %102 = load i16, ptr %11, align 2, !tbaa !31
  %103 = load ptr, ptr %9, align 8, !tbaa !3
  %104 = load i32, ptr %13, align 4, !tbaa !20
  %105 = sext i32 %104 to i64
  %106 = load i64, ptr %15, align 8, !tbaa !61
  %107 = mul i64 %105, %106
  %108 = getelementptr inbounds nuw i8, ptr %103, i64 %107
  %109 = load ptr, ptr %14, align 8, !tbaa !36
  %110 = call i32 %101(i16 noundef zeroext %102, ptr noundef %108, ptr noundef %109, ptr noundef %17)
  store i32 %110, ptr %12, align 4, !tbaa !20
  %111 = load i32, ptr %12, align 4, !tbaa !20
  %112 = icmp ne i32 0, %111
  br i1 %112, label %113, label %124

113:                                              ; preds = %100
  br label %114

114:                                              ; preds = %113
  %115 = load i32, ptr %12, align 4, !tbaa !20
  %116 = icmp ne i32 -2, %115
  br i1 %116, label %117, label %120

117:                                              ; preds = %114
  %118 = load i32, ptr %12, align 4, !tbaa !20
  %119 = call ptr @PMIx_Error_string(i32 noundef %118)
  call void (i32, ptr, ...) @pmix_output(i32 noundef 0, ptr noundef @.str.71, ptr noundef %119, ptr noundef @.str.72, i32 noundef 458)
  br label %120

120:                                              ; preds = %117, %114
  br label %121

121:                                              ; preds = %120
  br label %122

122:                                              ; preds = %121
  %123 = load i32, ptr %12, align 4, !tbaa !20
  store i32 %123, ptr %6, align 4
  store i32 1, ptr %18, align 4
  br label %142

124:                                              ; preds = %100
  %125 = load i64, ptr %17, align 8, !tbaa !61
  %126 = load ptr, ptr %14, align 8, !tbaa !36
  %127 = getelementptr inbounds nuw i8, ptr %126, i64 %125
  store ptr %127, ptr %14, align 8, !tbaa !36
  %128 = load i64, ptr %17, align 8, !tbaa !61
  %129 = load ptr, ptr %8, align 8, !tbaa !3
  %130 = getelementptr inbounds nuw %struct.pmix_buffer_t, ptr %129, i32 0, i32 3
  %131 = load ptr, ptr %130, align 8, !tbaa !91
  %132 = getelementptr inbounds nuw i8, ptr %131, i64 %128
  store ptr %132, ptr %130, align 8, !tbaa !91
  %133 = load i64, ptr %17, align 8, !tbaa !61
  %134 = load ptr, ptr %8, align 8, !tbaa !3
  %135 = getelementptr inbounds nuw %struct.pmix_buffer_t, ptr %134, i32 0, i32 6
  %136 = load i64, ptr %135, align 8, !tbaa !93
  %137 = add i64 %136, %133
  store i64 %137, ptr %135, align 8, !tbaa !93
  br label %138

138:                                              ; preds = %124
  %139 = load i32, ptr %13, align 4, !tbaa !20
  %140 = add nsw i32 %139, 1
  store i32 %140, ptr %13, align 4, !tbaa !20
  br label %96, !llvm.loop !94

141:                                              ; preds = %96
  store i32 0, ptr %6, align 4
  store i32 1, ptr %18, align 4
  br label %142

142:                                              ; preds = %141, %122, %93, %74, %57
  call void @llvm.lifetime.end.p0(i64 8, ptr %17) #12
  call void @llvm.lifetime.end.p0(i64 8, ptr %16) #12
  call void @llvm.lifetime.end.p0(i64 8, ptr %15) #12
  call void @llvm.lifetime.end.p0(i64 8, ptr %14) #12
  call void @llvm.lifetime.end.p0(i64 4, ptr %13) #12
  call void @llvm.lifetime.end.p0(i64 4, ptr %12) #12
  %143 = load i32, ptr %6, align 4
  ret i32 %143
}